target datalayout = "e-m:e-p270:32:32-p271:32:32-p272:64:64-i64:64-i128:128-f80:128-n8:16:32:64-S128"
target triple = "x86_64-pc-linux-gnu"

%struct.TypeCacheEntry = type { i32, i32, i16, i8, i8, i8, i8, i32, i32, i32, i32, i32, i32, i32, i32, i32, i32, i32, i32, i32, i32, %struct.FmgrInfo, %struct.FmgrInfo, %struct.FmgrInfo, %struct.FmgrInfo, ptr, i64, ptr, i32, i32, %struct.FmgrInfo, %struct.FmgrInfo, %struct.FmgrInfo, ptr, i32, i32, ptr, i32, ptr, ptr }
%struct.FmgrInfo = type { ptr, i32, i16, i8, i8, i8, ptr, ptr, ptr }
%struct.HeapTupleData = type { i32, %struct.ItemPointerData, i32, ptr }
%struct.ItemPointerData = type { %struct.BlockIdData, i16 }
%struct.BlockIdData = type { i16, i16 }
%struct.HeapTupleHeaderData = type { %union.anon.0, %struct.ItemPointerData, i16, i16, i8, [0 x i8] }
%union.anon.0 = type { %struct.HeapTupleFields }
%struct.HeapTupleFields = type { i32, i32, %union.anon.1 }
%union.anon.1 = type { i32 }
%struct.FormData_pg_range = type { i32, i32, i32, i32, i32, i32, i32 }

@CacheMemoryContext = external global ptr, align 8
@.str.3 = private unnamed_addr constant [11 x i8] c"typcache.c\00", align 1
@.str.11 = private unnamed_addr constant [38 x i8] c"cache lookup failed for range type %u\00", align 1
@__func__.load_rangetype_info = private unnamed_addr constant [20 x i8] c"load_rangetype_info\00", align 1
@.str.12 = private unnamed_addr constant [50 x i8] c"missing support function %d(%u,%u) in opfamily %u\00", align 1

; Function Attrs: inlinehint nounwind uwtable
define internal ptr @GETSTRUCT(ptr noundef %0) #3 {
  %2 = alloca ptr, align 8
  store ptr %0, ptr %2, align 8
  %3 = load ptr, ptr %2, align 8
  %4 = getelementptr inbounds nuw %struct.HeapTupleData, ptr %3, i32 0, i32 3
  %5 = load ptr, ptr %4, align 8
  %6 = load ptr, ptr %2, align 8
  %7 = getelementptr inbounds nuw %struct.HeapTupleData, ptr %6, i32 0, i32 3
  %8 = load ptr, ptr %7, align 8
  %9 = getelementptr inbounds nuw %struct.HeapTupleHeaderData, ptr %8, i32 0, i32 4
  %10 = load i8, ptr %9, align 2
  %11 = zext i8 %10 to i32
  %12 = sext i32 %11 to i64
  %13 = getelementptr inbounds i8, ptr %5, i64 %12
  ret ptr %13
}

; Function Attrs: inlinehint nounwind uwtable
define internal i64 @ObjectIdGetDatum(i32 noundef %0) #3 {
  %2 = alloca i32, align 4
  store i32 %0, ptr %2, align 4
  %3 = load i32, ptr %2, align 4
  %4 = zext i32 %3 to i64
  ret i64 %4
}

; Function Attrs: nounwind uwtable
define internal void @load_rangetype_info(ptr noundef %0) #0 {
  %2 = alloca ptr, align 8
  %3 = alloca ptr, align 8
  %4 = alloca ptr, align 8
  %5 = alloca i32, align 4
  %6 = alloca i32, align 4
  %7 = alloca i32, align 4
  %8 = alloca i32, align 4
  %9 = alloca i32, align 4
  %10 = alloca i32, align 4
  %11 = alloca i32, align 4
  store ptr %0, ptr %2, align 8
  call void @llvm.lifetime.start.p0(i64 8, ptr %3) #11
  call void @llvm.lifetime.start.p0(i64 8, ptr %4) #11
  call void @llvm.lifetime.start.p0(i64 4, ptr %5) #11
  call void @llvm.lifetime.start.p0(i64 4, ptr %6) #11
  call void @llvm.lifetime.start.p0(i64 4, ptr %7) #11
  call void @llvm.lifetime.start.p0(i64 4, ptr %8) #11
  call void @llvm.lifetime.start.p0(i64 4, ptr %9) #11
  call void @llvm.lifetime.start.p0(i64 4, ptr %10) #11
  call void @llvm.lifetime.start.p0(i64 4, ptr %11) #11
  %12 = load ptr, ptr %2, align 8
  %13 = getelementptr inbounds nuw %struct.TypeCacheEntry, ptr %12, i32 0, i32 0
  %14 = load i32, ptr %13, align 8
  %15 = call i64 @ObjectIdGetDatum(i32 noundef %14)
  %16 = call ptr @SearchSysCache1(i32 noundef 55, i64 noundef %15)
  store ptr %16, ptr %4, align 8
  %17 = load ptr, ptr %4, align 8
  %18 = icmp ne ptr %17, null
  br i1 %18, label %33, label %19

19:                                               ; preds = %1
  br label %20

20:                                               ; preds = %19
  br i1 true, label %21, label %23

21:                                               ; preds = %20
  %22 = call zeroext i1 @errstart_cold(i32 noundef 21, ptr noundef null) #12
  br i1 %22, label %25, label %30

23:                                               ; preds = %20
  %24 = call zeroext i1 @errstart(i32 noundef 21, ptr noundef null)
  br i1 %24, label %25, label %30

25:                                               ; preds = %23, %21
  %26 = load ptr, ptr %2, align 8
  %27 = getelementptr inbounds nuw %struct.TypeCacheEntry, ptr %26, i32 0, i32 0
  %28 = load i32, ptr %27, align 8
  %29 = call i32 (ptr, ...) @errmsg_internal(ptr noundef @.str.11, i32 noundef %28)
  call void @errfinish(ptr noundef @.str.3, i32 noundef 1018, ptr noundef @__func__.load_rangetype_info)
  br label %30

30:                                               ; preds = %25, %23, %21
  unreachable

31:                                               ; No predecessors!
  br label %32

32:                                               ; preds = %31
  br label %33

33:                                               ; preds = %32, %1
  %34 = load ptr, ptr %4, align 8
  %35 = call ptr @GETSTRUCT(ptr noundef %34)
  store ptr %35, ptr %3, align 8
  %36 = load ptr, ptr %3, align 8
  %37 = getelementptr inbounds nuw %struct.FormData_pg_range, ptr %36, i32 0, i32 1
  %38 = load i32, ptr %37, align 4
  store i32 %38, ptr %5, align 4
  %39 = load ptr, ptr %3, align 8
  %40 = getelementptr inbounds nuw %struct.FormData_pg_range, ptr %39, i32 0, i32 3
  %41 = load i32, ptr %40, align 4
  %42 = load ptr, ptr %2, align 8
  %43 = getelementptr inbounds nuw %struct.TypeCacheEntry, ptr %42, i32 0, i32 29
  store i32 %41, ptr %43, align 4
  %44 = load ptr, ptr %3, align 8
  %45 = getelementptr inbounds nuw %struct.FormData_pg_range, ptr %44, i32 0, i32 4
  %46 = load i32, ptr %45, align 4
  store i32 %46, ptr %6, align 4
  %47 = load ptr, ptr %3, align 8
  %48 = getelementptr inbounds nuw %struct.FormData_pg_range, ptr %47, i32 0, i32 5
  %49 = load i32, ptr %48, align 4
  store i32 %49, ptr %7, align 4
  %50 = load ptr, ptr %3, align 8
  %51 = getelementptr inbounds nuw %struct.FormData_pg_range, ptr %50, i32 0, i32 6
  %52 = load i32, ptr %51, align 4
  store i32 %52, ptr %8, align 4
  %53 = load ptr, ptr %4, align 8
  call void @ReleaseSysCache(ptr noundef %53)
  %54 = load i32, ptr %6, align 4
  %55 = call i32 @get_opclass_family(i32 noundef %54)
  store i32 %55, ptr %9, align 4
  %56 = load i32, ptr %6, align 4
  %57 = call i32 @get_opclass_input_type(i32 noundef %56)
  store i32 %57, ptr %10, align 4
  %58 = load i32, ptr %9, align 4
  %59 = load ptr, ptr %2, align 8
  %60 = getelementptr inbounds nuw %struct.TypeCacheEntry, ptr %59, i32 0, i32 28
  store i32 %58, ptr %60, align 8
  %61 = load i32, ptr %9, align 4
  %62 = load i32, ptr %10, align 4
  %63 = load i32, ptr %10, align 4
  %64 = call i32 @get_opfamily_proc(i32 noundef %61, i32 noundef %62, i32 noundef %63, i16 noundef signext 1)
  store i32 %64, ptr %11, align 4
  %65 = load i32, ptr %11, align 4
  %66 = icmp ne i32 %65, 0
  br i1 %66, label %81, label %67

67:                                               ; preds = %33
  br label %68

68:                                               ; preds = %67
  br i1 true, label %69, label %71

69:                                               ; preds = %68
  %70 = call zeroext i1 @errstart_cold(i32 noundef 21, ptr noundef null) #12
  br i1 %70, label %73, label %78

71:                                               ; preds = %68
  %72 = call zeroext i1 @errstart(i32 noundef 21, ptr noundef null)
  br i1 %72, label %73, label %78

73:                                               ; preds = %71, %69
  %74 = load i32, ptr %10, align 4
  %75 = load i32, ptr %10, align 4
  %76 = load i32, ptr %9, align 4
  %77 = call i32 (ptr, ...) @errmsg_internal(ptr noundef @.str.12, i32 noundef 1, i32 noundef %74, i32 noundef %75, i32 noundef %76)
  call void @errfinish(ptr noundef @.str.3, i32 noundef 1038, ptr noundef @__func__.load_rangetype_info)
  br label %78

78:                                               ; preds = %73, %71, %69
  unreachable

79:                                               ; No predecessors!
  br label %80

80:                                               ; preds = %79
  br label %81

81:                                               ; preds = %80, %33
  %82 = load i32, ptr %11, align 4
  %83 = load ptr, ptr %2, align 8
  %84 = getelementptr inbounds nuw %struct.TypeCacheEntry, ptr %83, i32 0, i32 30
  %85 = load ptr, ptr @CacheMemoryContext, align 8
  call void @fmgr_info_cxt(i32 noundef %82, ptr noundef %84, ptr noundef %85)
  %86 = load i32, ptr %7, align 4
  %87 = icmp ne i32 %86, 0
  br i1 %87, label %88, label %93

88:                                               ; preds = %81
  %89 = load i32, ptr %7, align 4
  %90 = load ptr, ptr %2, align 8
  %91 = getelementptr inbounds nuw %struct.TypeCacheEntry, ptr %90, i32 0, i32 31
  %92 = load ptr, ptr @CacheMemoryContext, align 8
  call void @fmgr_info_cxt(i32 noundef %89, ptr noundef %91, ptr noundef %92)
  br label %93

93:                                               ; preds = %88, %81
  %94 = load i32, ptr %8, align 4
  %95 = icmp ne i32 %94, 0
  br i1 %95, label %96, label %101

96:                                               ; preds = %93
  %97 = load i32, ptr %8, align 4
  %98 = load ptr, ptr %2, align 8
  %99 = getelementptr inbounds nuw %struct.TypeCacheEntry, ptr %98, i32 0, i32 32
  %100 = load ptr, ptr @CacheMemoryContext, align 8
  call void @fmgr_info_cxt(i32 noundef %97, ptr noundef %99, ptr noundef %100)
  br label %101

101:                                              ; preds = %96, %93
  %102 = load i32, ptr %5, align 4
  %103 = call ptr @lookup_type_cache(i32 noundef %102, i32 noundef 0)
  %104 = load ptr, ptr %2, align 8
  %105 = getelementptr inbounds nuw %struct.TypeCacheEntry, ptr %104, i32 0, i32 27
  store ptr %103, ptr %105, align 8
  call void @llvm.lifetime.end.p0(i64 4, ptr %11) #11
  call void @llvm.lifetime.end.p0(i64 4, ptr %10) #11
  call void @llvm.lifetime.end.p0(i64 4, ptr %9) #11
  call void @llvm.lifetime.end.p0(i64 4, ptr %8) #11
  call void @llvm.lifetime.end.p0(i64 4, ptr %7) #11
  call void @llvm.lifetime.end.p0(i64 4, ptr %6) #11
  call void @llvm.lifetime.end.p0(i64 4, ptr %5) #11
  call void @llvm.lifetime.end.p0(i64 8, ptr %4) #11
  call void @llvm.lifetime.end.p0(i64 8, ptr %3) #11
  ret void
}