; Function Attrs: nounwind uwtable
define internal fastcc void @load_rangetype_info(ptr noundef %0) unnamed_addr #0 {
  %2 = load i32, ptr %0, align 8
  %3 = zext i32 %2 to i64
  %4 = tail call ptr @SearchSysCache1(i32 noundef 55, i64 noundef %3) #16
  %.not = icmp eq ptr %4, null
  br i1 %.not, label %5, label %9

5:                                                ; preds = %1
  %6 = tail call zeroext i1 @errstart_cold(i32 noundef 21, ptr noundef null) #17
  tail call void @llvm.assume(i1 %6)
  %7 = load i32, ptr %0, align 8
  %8 = tail call i32 (ptr, ...) @errmsg_internal(ptr noundef nonnull @.str.11, i32 noundef %7) #16
  tail call void @errfinish(ptr noundef nonnull @.str.3, i32 noundef 1018, ptr noundef nonnull @__func__.load_rangetype_info) #16
  unreachable

9:                                                ; preds = %1
  %10 = getelementptr i8, ptr %4, i64 16
  %.val = load ptr, ptr %10, align 8
  %11 = getelementptr inbounds nuw i8, ptr %.val, i64 22
  %12 = load i8, ptr %11, align 2
  %13 = zext i8 %12 to i64
  %14 = getelementptr inbounds nuw i8, ptr %.val, i64 %13
  %15 = getelementptr inbounds nuw i8, ptr %14, i64 4
  %16 = load i32, ptr %15, align 4
  %17 = getelementptr inbounds nuw i8, ptr %14, i64 12
  %18 = load i32, ptr %17, align 4
  %19 = getelementptr inbounds nuw i8, ptr %0, i64 292
  store i32 %18, ptr %19, align 4
  %20 = getelementptr inbounds nuw i8, ptr %14, i64 16
  %21 = load i32, ptr %20, align 4
  %22 = getelementptr inbounds nuw i8, ptr %14, i64 20
  %23 = load i32, ptr %22, align 4
  %24 = getelementptr inbounds nuw i8, ptr %14, i64 24
  %25 = load i32, ptr %24, align 4
  tail call void @ReleaseSysCache(ptr noundef nonnull %4) #16
  %26 = tail call i32 @get_opclass_family(i32 noundef %21) #16
  %27 = tail call i32 @get_opclass_input_type(i32 noundef %21) #16
  %28 = getelementptr inbounds nuw i8, ptr %0, i64 288
  store i32 %26, ptr %28, align 8
  %29 = tail call i32 @get_opfamily_proc(i32 noundef %26, i32 noundef %27, i32 noundef %27, i16 noundef signext 1) #16
  %.not34 = icmp eq i32 %29, 0
  br i1 %.not34, label %30, label %33

30:                                               ; preds = %9
  %31 = tail call zeroext i1 @errstart_cold(i32 noundef 21, ptr noundef null) #17
  tail call void @llvm.assume(i1 %31)
  %32 = tail call i32 (ptr, ...) @errmsg_internal(ptr noundef nonnull @.str.12, i32 noundef 1, i32 noundef %27, i32 noundef %27, i32 noundef %26) #16
  tail call void @errfinish(ptr noundef nonnull @.str.3, i32 noundef 1038, ptr noundef nonnull @__func__.load_rangetype_info) #16
  unreachable

33:                                               ; preds = %9
  %34 = getelementptr inbounds nuw i8, ptr %0, i64 296
  %35 = load ptr, ptr @CacheMemoryContext, align 8
  tail call void @fmgr_info_cxt(i32 noundef %29, ptr noundef nonnull %34, ptr noundef %35) #16
  %.not35 = icmp eq i32 %23, 0
  br i1 %.not35, label %39, label %36

36:                                               ; preds = %33
  %37 = getelementptr inbounds nuw i8, ptr %0, i64 344
  %38 = load ptr, ptr @CacheMemoryContext, align 8
  tail call void @fmgr_info_cxt(i32 noundef %23, ptr noundef nonnull %37, ptr noundef %38) #16
  br label %39

39:                                               ; preds = %36, %33
  %.not36 = icmp eq i32 %25, 0
  br i1 %.not36, label %43, label %40

40:                                               ; preds = %39
  %41 = getelementptr inbounds nuw i8, ptr %0, i64 392
  %42 = load ptr, ptr @CacheMemoryContext, align 8
  tail call void @fmgr_info_cxt(i32 noundef %25, ptr noundef nonnull %41, ptr noundef %42) #16
  br label %43

43:                                               ; preds = %40, %39
  %44 = tail call ptr @lookup_type_cache(i32 noundef %16, i32 noundef 0)
  %45 = getelementptr inbounds nuw i8, ptr %0, i64 280
  store ptr %44, ptr %45, align 8
  ret void
}